; Function Attrs: null_pointer_is_valid sspstrong uwtable
define ptr @uat_add_record(ptr noundef readonly captures(none) %0, ptr noundef %1, i1 noundef zeroext %2) local_unnamed_addr #0 {
  %4 = alloca i8, align 1
  %5 = zext i1 %2 to i8
  %6 = getelementptr inbounds nuw i8, ptr %0, i64 136
  %7 = load ptr, ptr %6, align 8
  %8 = getelementptr inbounds nuw i8, ptr %7, i64 8
  %9 = load i32, ptr %8, align 8
  %10 = tail call ptr @g_array_insert_vals(ptr noundef %7, i32 noundef %9, ptr noundef %1, i32 noundef 1)
  %11 = load ptr, ptr %6, align 8
  %12 = load ptr, ptr %11, align 8
  %13 = getelementptr inbounds nuw i8, ptr %0, i64 8
  %14 = load i64, ptr %13, align 8
  %15 = zext i32 %9 to i64
  %16 = mul i64 %14, %15
  %17 = getelementptr i8, ptr %12, i64 %16
  %18 = getelementptr inbounds nuw i8, ptr %0, i64 64
  %19 = load ptr, ptr %18, align 8
  %.not.i = icmp eq ptr %19, null
  %20 = and i64 %14, 4294967295
  br i1 %.not.i, label %23, label %21

21:                                               ; preds = %3
  %22 = tail call ptr %19(ptr noundef %17, ptr noundef %1, i64 noundef %20)
  br label %uat_insert_record_idx.exit

23:                                               ; preds = %3
  tail call void @llvm.memcpy.p0.p0.i64(ptr noundef align 1 %17, ptr noundef align 1 %1, i64 noundef %20, i1 noundef false) #17
  br label %uat_insert_record_idx.exit

uat_insert_record_idx.exit:                       ; preds = %21, %23
  call void @llvm.lifetime.start.p0(i64 1, ptr nonnull %4) #17
  store i8 0, ptr %4, align 1
  %24 = getelementptr inbounds nuw i8, ptr %0, i64 144
  %25 = load ptr, ptr %24, align 8
  %26 = call ptr @g_array_insert_vals(ptr noundef %25, i32 noundef %9, ptr noundef nonnull %4, i32 noundef 1)
  call void @llvm.lifetime.end.p0(i64 1, ptr nonnull %4) #17
  br i1 %2, label %27, label %60

27:                                               ; preds = %uat_insert_record_idx.exit
  %28 = getelementptr inbounds nuw i8, ptr %0, i64 128
  %29 = load ptr, ptr %28, align 8
  %30 = call ptr @g_array_append_vals(ptr noundef %29, ptr noundef %1, i32 noundef 1)
  %31 = load ptr, ptr %28, align 8
  %32 = load ptr, ptr %31, align 8
  %33 = load i64, ptr %13, align 8
  %34 = getelementptr inbounds nuw i8, ptr %31, i64 8
  %35 = load i32, ptr %34, align 8
  %36 = add i32 %35, -1
  %37 = zext i32 %36 to i64
  %38 = mul i64 %33, %37
  %39 = getelementptr i8, ptr %32, i64 %38
  %40 = load ptr, ptr %18, align 8
  %.not = icmp eq ptr %40, null
  br i1 %.not, label %44, label %41

41:                                               ; preds = %27
  %42 = and i64 %33, 4294967295
  %43 = call ptr %40(ptr noundef %39, ptr noundef %1, i64 noundef %42)
  %.pre = load ptr, ptr %28, align 8
  %.pre23 = load ptr, ptr %.pre, align 8
  br label %44

44:                                               ; preds = %27, %41
  %45 = phi ptr [ %32, %27 ], [ %.pre23, %41 ]
  %46 = getelementptr inbounds nuw i8, ptr %0, i64 48
  %47 = load ptr, ptr %46, align 8
  store ptr %45, ptr %47, align 8
  %48 = load ptr, ptr %28, align 8
  %49 = getelementptr inbounds nuw i8, ptr %48, i64 8
  %50 = load i32, ptr %49, align 8
  %51 = getelementptr inbounds nuw i8, ptr %0, i64 56
  %52 = load ptr, ptr %51, align 8
  store i32 %50, ptr %52, align 4
  %53 = load ptr, ptr %24, align 8
  %54 = load ptr, ptr %53, align 8
  %55 = getelementptr inbounds nuw i8, ptr %53, i64 8
  %56 = load i32, ptr %55, align 8
  %57 = add i32 %56, -1
  %58 = zext i32 %57 to i64
  %59 = getelementptr i8, ptr %54, i64 %58
  store i8 %5, ptr %59, align 1
  br label %60

60:                                               ; preds = %uat_insert_record_idx.exit, %44
  %.0 = phi ptr [ %39, %44 ], [ null, %uat_insert_record_idx.exit ]
  ret ptr %.0
}